c__builtin__
set
p0
((lp1
Vis
p2
aVbudget
p3
aVat
p4
aVwant
p5
aVfind
p6
aVfrom
p7
aVfor
p8
aVtravel
p9
aVday
p10
aVto
p11
aVmore
p12
aVdo
p13
aVhere
p14
aVthan
p15
aVa
p16
aS'DIGIT'
p17
aVhour
p18
aVi
p19
aVmaximum
p20
aVn't
p21
aVplace
p22
aVnight
p23
aVmy
p24
aVspend
p25
atp26
Rp27
.