ccopy_reg
_reconstructor
p0
(cnltk.classify.naivebayes
NaiveBayesClassifier
p1
c__builtin__
object
p2
Ntp3
Rp4
(dp5
S'_labels'
p6
(lp7
S'MAXTIME'
p8
aS'DAYS'
p9
aS'MAXMONEY'
p10
asS'_feature_probdist'
p11
(dp12
(g9
S'do'
p13
tp14
g0
(cnltk.probability
ELEProbDist
p15
g2
Ntp16
Rp17
(dp18
S'_gamma'
p19
F0.5
sS'_N'
p20
I2
sS'_freqdist'
p21
cnltk.probability
FreqDist
p22
((dp23
I00
I2
stp24
Rp25
sS'_bins'
p26
I2
sS'_divisor'
p27
F3.0
sbs(g10
S'days'
p28
tp29
g0
(g15
g2
Ntp30
Rp31
(dp32
g19
F0.5
sg20
I2
sg21
g22
((dp33
I00
I2
stp34
Rp35
sg26
I2
sg27
F3.0
sbs(g9
g28
tp36
g0
(g15
g2
Ntp37
Rp38
(dp39
g19
F0.5
sg20
I2
sg21
g22
((dp40
I00
I1
sI01
I1
stp41
Rp42
sg26
I2
sg27
F3.0
sbs(g8
g13
tp43
g0
(g15
g2
Ntp44
Rp45
(dp46
g19
F0.5
sg20
I2
sg21
g22
((dp47
I00
I1
sI01
I1
stp48
Rp49
sg26
I2
sg27
F3.0
sbs(g10
S'DIGIT'
p50
tp51
g0
(g15
g2
Ntp52
Rp53
(dp54
g19
F0.5
sg20
I2
sg21
g22
((dp55
I01
I2
stp56
Rp57
sg26
I1
sg27
F2.5
sbs(g9
S'here'
p58
tp59
g0
(g15
g2
Ntp60
Rp61
(dp62
g19
F0.5
sg20
I2
sg21
g22
((dp63
I00
I2
stp64
Rp65
sg26
I2
sg27
F3.0
sbs(g8
S'a'
p66
tp67
g0
(g15
g2
Ntp68
Rp69
(dp70
g19
F0.5
sg20
I2
sg21
g22
((dp71
I00
I2
stp72
Rp73
sg26
I2
sg27
F3.0
sbs(g8
S'find'
p74
tp75
g0
(g15
g2
Ntp76
Rp77
(dp78
g19
F0.5
sg20
I2
sg21
g22
((dp79
I00
I2
stp80
Rp81
sg26
I2
sg27
F3.0
sbs(g10
g58
tp82
g0
(g15
g2
Ntp83
Rp84
(dp85
g19
F0.5
sg20
I2
sg21
g22
((dp86
I00
I2
stp87
Rp88
sg26
I2
sg27
F3.0
sbs(g10
S'from'
p89
tp90
g0
(g15
g2
Ntp91
Rp92
(dp93
g19
F0.5
sg20
I2
sg21
g22
((dp94
I00
I2
stp95
Rp96
sg26
I2
sg27
F3.0
sbs(g9
S'for'
p97
tp98
g0
(g15
g2
Ntp99
Rp100
(dp101
g19
F0.5
sg20
I2
sg21
g22
((dp102
I01
I2
stp103
Rp104
sg26
I2
sg27
F3.0
sbs(g10
S'budget'
p105
tp106
g0
(g15
g2
Ntp107
Rp108
(dp109
g19
F0.5
sg20
I2
sg21
g22
((dp110
I00
I1
sI01
I1
stp111
Rp112
sg26
I2
sg27
F3.0
sbs(g10
S'hour'
p113
tp114
g0
(g15
g2
Ntp115
Rp116
(dp117
g19
F0.5
sg20
I2
sg21
g22
((dp118
I00
I2
stp119
Rp120
sg26
I2
sg27
F3.0
sbs(g9
g74
tp121
g0
(g15
g2
Ntp122
Rp123
(dp124
g19
F0.5
sg20
I2
sg21
g22
((dp125
I01
I2
stp126
Rp127
sg26
I2
sg27
F3.0
sbs(g9
S'i'
p128
tp129
g0
(g15
g2
Ntp130
Rp131
(dp132
g19
F0.5
sg20
I2
sg21
g22
((dp133
I00
I2
stp134
Rp135
sg26
I2
sg27
F3.0
sbs(g8
S"n't"
p136
tp137
g0
(g15
g2
Ntp138
Rp139
(dp140
g19
F0.5
sg20
I2
sg21
g22
((dp141
I00
I1
sI01
I1
stp142
Rp143
sg26
I2
sg27
F3.0
sbs(g8
S'maximum'
p144
tp145
g0
(g15
g2
Ntp146
Rp147
(dp148
g19
F0.5
sg20
I2
sg21
g22
((dp149
I00
I1
sI01
I1
stp150
Rp151
sg26
I2
sg27
F3.0
sbs(g8
g97
tp152
g0
(g15
g2
Ntp153
Rp154
(dp155
g19
F0.5
sg20
I2
sg21
g22
((dp156
I00
I2
stp157
Rp158
sg26
I2
sg27
F3.0
sbs(g9
S'travel'
p159
tp160
g0
(g15
g2
Ntp161
Rp162
(dp163
g19
F0.5
sg20
I2
sg21
g22
((dp164
I00
I2
stp165
Rp166
sg26
I2
sg27
F3.0
sbs(g8
g105
tp167
g0
(g15
g2
Ntp168
Rp169
(dp170
g19
F0.5
sg20
I2
sg21
g22
((dp171
I00
I2
stp172
Rp173
sg26
I2
sg27
F3.0
sbs(g9
g144
tp174
g0
(g15
g2
Ntp175
Rp176
(dp177
g19
F0.5
sg20
I2
sg21
g22
((dp178
I00
I2
stp179
Rp180
sg26
I2
sg27
F3.0
sbs(g8
S'at'
p181
tp182
g0
(g15
g2
Ntp183
Rp184
(dp185
g19
F0.5
sg20
I2
sg21
g22
((dp186
I00
I1
sI01
I1
stp187
Rp188
sg26
I2
sg27
F3.0
sbs(g8
g58
tp189
g0
(g15
g2
Ntp190
Rp191
(dp192
g19
F0.5
sg20
I2
sg21
g22
((dp193
I00
I1
sI01
I1
stp194
Rp195
sg26
I2
sg27
F3.0
sbs(g8
g128
tp196
g0
(g15
g2
Ntp197
Rp198
(dp199
g19
F0.5
sg20
I2
sg21
g22
((dp200
I00
I1
sI01
I1
stp201
Rp202
sg26
I2
sg27
F3.0
sbs(g8
S'nights'
p203
tp204
g0
(g15
g2
Ntp205
Rp206
(dp207
g19
F0.5
sg20
I2
sg21
g22
((dp208
I00
I2
stp209
Rp210
sg26
I2
sg27
F3.0
sbs(g9
g136
tp211
g0
(g15
g2
Ntp212
Rp213
(dp214
g19
F0.5
sg20
I2
sg21
g22
((dp215
I00
I2
stp216
Rp217
sg26
I2
sg27
F3.0
sbs(g10
S'spend'
p218
tp219
g0
(g15
g2
Ntp220
Rp221
(dp222
g19
F0.5
sg20
I2
sg21
g22
((dp223
I00
I1
sI01
I1
stp224
Rp225
sg26
I2
sg27
F3.0
sbs(g9
g218
tp226
g0
(g15
g2
Ntp227
Rp228
(dp229
g19
F0.5
sg20
I2
sg21
g22
((dp230
I00
I2
stp231
Rp232
sg26
I2
sg27
F3.0
sbs(g8
S'to'
p233
tp234
g0
(g15
g2
Ntp235
Rp236
(dp237
g19
F0.5
sg20
I2
sg21
g22
((dp238
I00
I1
sI01
I1
stp239
Rp240
sg26
I2
sg27
F3.0
sbs(g10
S'more'
p241
tp242
g0
(g15
g2
Ntp243
Rp244
(dp245
g19
F0.5
sg20
I2
sg21
g22
((dp246
I00
I1
sI01
I1
stp247
Rp248
sg26
I2
sg27
F3.0
sbs(g8
S'hours'
p249
tp250
g0
(g15
g2
Ntp251
Rp252
(dp253
g19
F0.5
sg20
I2
sg21
g22
((dp254
I00
I1
sI01
I1
stp255
Rp256
sg26
I2
sg27
F3.0
sbs(g9
S'place'
p257
tp258
g0
(g15
g2
Ntp259
Rp260
(dp261
g19
F0.5
sg20
I2
sg21
g22
((dp262
I01
I2
stp263
Rp264
sg26
I2
sg27
F3.0
sbs(g9
g241
tp265
g0
(g15
g2
Ntp266
Rp267
(dp268
g19
F0.5
sg20
I2
sg21
g22
((dp269
I00
I2
stp270
Rp271
sg26
I2
sg27
F3.0
sbs(g9
S'is'
p272
tp273
g0
(g15
g2
Ntp274
Rp275
(dp276
g19
F0.5
sg20
I2
sg21
g22
((dp277
I00
I2
stp278
Rp279
sg26
I2
sg27
F3.0
sbs(g9
g89
tp280
g0
(g15
g2
Ntp281
Rp282
(dp283
g19
F0.5
sg20
I2
sg21
g22
((dp284
I00
I2
stp285
Rp286
sg26
I2
sg27
F3.0
sbs(g10
g13
tp287
g0
(g15
g2
Ntp288
Rp289
(dp290
g19
F0.5
sg20
I2
sg21
g22
((dp291
I00
I1
sI01
I1
stp292
Rp293
sg26
I2
sg27
F3.0
sbs(g10
g272
tp294
g0
(g15
g2
Ntp295
Rp296
(dp297
g19
F0.5
sg20
I2
sg21
g22
((dp298
I00
I1
sI01
I1
stp299
Rp300
sg26
I2
sg27
F3.0
sbs(g10
g66
tp301
g0
(g15
g2
Ntp302
Rp303
(dp304
g19
F0.5
sg20
I2
sg21
g22
((dp305
I00
I2
stp306
Rp307
sg26
I2
sg27
F3.0
sbs(g9
g50
tp308
g0
(g15
g2
Ntp309
Rp310
(dp311
g19
F0.5
sg20
I2
sg21
g22
((dp312
I01
I2
stp313
Rp314
sg26
I1
sg27
F2.5
sbs(g8
S'than'
p315
tp316
g0
(g15
g2
Ntp317
Rp318
(dp319
g19
F0.5
sg20
I2
sg21
g22
((dp320
I00
I1
sI01
I1
stp321
Rp322
sg26
I2
sg27
F3.0
sbs(g8
S'want'
p323
tp324
g0
(g15
g2
Ntp325
Rp326
(dp327
g19
F0.5
sg20
I2
sg21
g22
((dp328
I00
I1
sI01
I1
stp329
Rp330
sg26
I2
sg27
F3.0
sbs(g8
S'my'
p331
tp332
g0
(g15
g2
Ntp333
Rp334
(dp335
g19
F0.5
sg20
I2
sg21
g22
((dp336
I00
I2
stp337
Rp338
sg26
I2
sg27
F3.0
sbs(g9
g249
tp339
g0
(g15
g2
Ntp340
Rp341
(dp342
g19
F0.5
sg20
I2
sg21
g22
((dp343
I00
I2
stp344
Rp345
sg26
I2
sg27
F3.0
sbs(g8
g50
tp346
g0
(g15
g2
Ntp347
Rp348
(dp349
g19
F0.5
sg20
I2
sg21
g22
((dp350
I01
I2
stp351
Rp352
sg26
I1
sg27
F2.5
sbs(g9
g113
tp353
g0
(g15
g2
Ntp354
Rp355
(dp356
g19
F0.5
sg20
I2
sg21
g22
((dp357
I00
I2
stp358
Rp359
sg26
I2
sg27
F3.0
sbs(g10
g249
tp360
g0
(g15
g2
Ntp361
Rp362
(dp363
g19
F0.5
sg20
I2
sg21
g22
((dp364
I00
I2
stp365
Rp366
sg26
I2
sg27
F3.0
sbs(g9
g331
tp367
g0
(g15
g2
Ntp368
Rp369
(dp370
g19
F0.5
sg20
I2
sg21
g22
((dp371
I00
I2
stp372
Rp373
sg26
I2
sg27
F3.0
sbs(g10
g97
tp374
g0
(g15
g2
Ntp375
Rp376
(dp377
g19
F0.5
sg20
I2
sg21
g22
((dp378
I00
I2
stp379
Rp380
sg26
I2
sg27
F3.0
sbs(g9
g315
tp381
g0
(g15
g2
Ntp382
Rp383
(dp384
g19
F0.5
sg20
I2
sg21
g22
((dp385
I00
I2
stp386
Rp387
sg26
I2
sg27
F3.0
sbs(g8
g89
tp388
g0
(g15
g2
Ntp389
Rp390
(dp391
g19
F0.5
sg20
I2
sg21
g22
((dp392
I00
I1
sI01
I1
stp393
Rp394
sg26
I2
sg27
F3.0
sbs(g8
g272
tp395
g0
(g15
g2
Ntp396
Rp397
(dp398
g19
F0.5
sg20
I2
sg21
g22
((dp399
I00
I2
stp400
Rp401
sg26
I2
sg27
F3.0
sbs(g10
g128
tp402
g0
(g15
g2
Ntp403
Rp404
(dp405
g19
F0.5
sg20
I2
sg21
g22
((dp406
I00
I1
sI01
I1
stp407
Rp408
sg26
I2
sg27
F3.0
sbs(g8
g113
tp409
g0
(g15
g2
Ntp410
Rp411
(dp412
g19
F0.5
sg20
I2
sg21
g22
((dp413
I00
I1
sI01
I1
stp414
Rp415
sg26
I2
sg27
F3.0
sbs(g10
g181
tp416
g0
(g15
g2
Ntp417
Rp418
(dp419
g19
F0.5
sg20
I2
sg21
g22
((dp420
I00
I2
stp421
Rp422
sg26
I2
sg27
F3.0
sbs(g10
g159
tp423
g0
(g15
g2
Ntp424
Rp425
(dp426
g19
F0.5
sg20
I2
sg21
g22
((dp427
I00
I2
stp428
Rp429
sg26
I2
sg27
F3.0
sbs(g9
g323
tp430
g0
(g15
g2
Ntp431
Rp432
(dp433
g19
F0.5
sg20
I2
sg21
g22
((dp434
I00
I2
stp435
Rp436
sg26
I2
sg27
F3.0
sbs(g10
g144
tp437
g0
(g15
g2
Ntp438
Rp439
(dp440
g19
F0.5
sg20
I2
sg21
g22
((dp441
I00
I2
stp442
Rp443
sg26
I2
sg27
F3.0
sbs(g10
g323
tp444
g0
(g15
g2
Ntp445
Rp446
(dp447
g19
F0.5
sg20
I2
sg21
g22
((dp448
I00
I1
sI01
I1
stp449
Rp450
sg26
I2
sg27
F3.0
sbs(g10
g203
tp451
g0
(g15
g2
Ntp452
Rp453
(dp454
g19
F0.5
sg20
I2
sg21
g22
((dp455
I00
I2
stp456
Rp457
sg26
I2
sg27
F3.0
sbs(g8
g257
tp458
g0
(g15
g2
Ntp459
Rp460
(dp461
g19
F0.5
sg20
I2
sg21
g22
((dp462
I00
I2
stp463
Rp464
sg26
I2
sg27
F3.0
sbs(g9
g233
tp465
g0
(g15
g2
Ntp466
Rp467
(dp468
g19
F0.5
sg20
I2
sg21
g22
((dp469
I00
I2
stp470
Rp471
sg26
I2
sg27
F3.0
sbs(g8
g218
tp472
g0
(g15
g2
Ntp473
Rp474
(dp475
g19
F0.5
sg20
I2
sg21
g22
((dp476
I00
I2
stp477
Rp478
sg26
I2
sg27
F3.0
sbs(g9
g203
tp479
g0
(g15
g2
Ntp480
Rp481
(dp482
g19
F0.5
sg20
I2
sg21
g22
((dp483
I00
I1
sI01
I1
stp484
Rp485
sg26
I2
sg27
F3.0
sbs(g10
g74
tp486
g0
(g15
g2
Ntp487
Rp488
(dp489
g19
F0.5
sg20
I2
sg21
g22
((dp490
I00
I2
stp491
Rp492
sg26
I2
sg27
F3.0
sbs(g9
g181
tp493
g0
(g15
g2
Ntp494
Rp495
(dp496
g19
F0.5
sg20
I2
sg21
g22
((dp497
I00
I2
stp498
Rp499
sg26
I2
sg27
F3.0
sbs(g8
g241
tp500
g0
(g15
g2
Ntp501
Rp502
(dp503
g19
F0.5
sg20
I2
sg21
g22
((dp504
I00
I1
sI01
I1
stp505
Rp506
sg26
I2
sg27
F3.0
sbs(g10
g136
tp507
g0
(g15
g2
Ntp508
Rp509
(dp510
g19
F0.5
sg20
I2
sg21
g22
((dp511
I00
I1
sI01
I1
stp512
Rp513
sg26
I2
sg27
F3.0
sbs(g10
g233
tp514
g0
(g15
g2
Ntp515
Rp516
(dp517
g19
F0.5
sg20
I2
sg21
g22
((dp518
I00
I1
sI01
I1
stp519
Rp520
sg26
I2
sg27
F3.0
sbs(g9
g66
tp521
g0
(g15
g2
Ntp522
Rp523
(dp524
g19
F0.5
sg20
I2
sg21
g22
((dp525
I01
I2
stp526
Rp527
sg26
I2
sg27
F3.0
sbs(g10
g315
tp528
g0
(g15
g2
Ntp529
Rp530
(dp531
g19
F0.5
sg20
I2
sg21
g22
((dp532
I00
I1
sI01
I1
stp533
Rp534
sg26
I2
sg27
F3.0
sbs(g8
g159
tp535
g0
(g15
g2
Ntp536
Rp537
(dp538
g19
F0.5
sg20
I2
sg21
g22
((dp539
I00
I1
sI01
I1
stp540
Rp541
sg26
I2
sg27
F3.0
sbs(g9
g105
tp542
g0
(g15
g2
Ntp543
Rp544
(dp545
g19
F0.5
sg20
I2
sg21
g22
((dp546
I00
I2
stp547
Rp548
sg26
I2
sg27
F3.0
sbs(g10
g257
tp549
g0
(g15
g2
Ntp550
Rp551
(dp552
g19
F0.5
sg20
I2
sg21
g22
((dp553
I00
I2
stp554
Rp555
sg26
I2
sg27
F3.0
sbs(g8
g28
tp556
g0
(g15
g2
Ntp557
Rp558
(dp559
g19
F0.5
sg20
I2
sg21
g22
((dp560
I00
I2
stp561
Rp562
sg26
I2
sg27
F3.0
sbs(g10
g331
tp563
g0
(g15
g2
Ntp564
Rp565
(dp566
g19
F0.5
sg20
I2
sg21
g22
((dp567
I00
I1
sI01
I1
stp568
Rp569
sg26
I2
sg27
F3.0
sbssS'_label_probdist'
p570
g0
(g15
g2
Ntp571
Rp572
(dp573
g19
F0.5
sg20
I6
sg21
g22
((dp574
g8
I2
sg9
I2
sg10
I2
stp575
Rp576
sg26
I3
sg27
F7.5
sbsb.