ccopy_reg
_reconstructor
p0
(cnltk.classify.naivebayes
NaiveBayesClassifier
p1
c__builtin__
object
p2
Ntp3
Rp4
(dp5
S'_labels'
p6
(lp7
S'MAXTIME'
p8
aS'DAYS'
p9
aS'MAXMONEY'
p10
asS'_feature_probdist'
p11
(dp12
(g9
Vdo
p13
tp14
g0
(cnltk.probability
ELEProbDist
p15
g2
Ntp16
Rp17
(dp18
S'_gamma'
p19
F0.5
sS'_N'
p20
I2
sS'_freqdist'
p21
cnltk.probability
FreqDist
p22
((dp23
I00
I2
stp24
Rp25
sS'_bins'
p26
I2
sS'_divisor'
p27
F3.0
sbs(g10
Vbudget
p28
tp29
g0
(g15
g2
Ntp30
Rp31
(dp32
g19
F0.5
sg20
I2
sg21
g22
((dp33
I00
I1
sI01
I1
stp34
Rp35
sg26
I2
sg27
F3.0
sbs(g9
g28
tp36
g0
(g15
g2
Ntp37
Rp38
(dp39
g19
F0.5
sg20
I2
sg21
g22
((dp40
I00
I2
stp41
Rp42
sg26
I2
sg27
F3.0
sbs(g8
g13
tp43
g0
(g15
g2
Ntp44
Rp45
(dp46
g19
F0.5
sg20
I2
sg21
g22
((dp47
I00
I1
sI01
I1
stp48
Rp49
sg26
I2
sg27
F3.0
sbs(g10
S'DIGIT'
p50
tp51
g0
(g15
g2
Ntp52
Rp53
(dp54
g19
F0.5
sg20
I2
sg21
g22
((dp55
I01
I2
stp56
Rp57
sg26
I1
sg27
F2.5
sbs(g9
Vhere
p58
tp59
g0
(g15
g2
Ntp60
Rp61
(dp62
g19
F0.5
sg20
I2
sg21
g22
((dp63
I00
I2
stp64
Rp65
sg26
I2
sg27
F3.0
sbs(g8
Va
p66
tp67
g0
(g15
g2
Ntp68
Rp69
(dp70
g19
F0.5
sg20
I2
sg21
g22
((dp71
I00
I2
stp72
Rp73
sg26
I2
sg27
F3.0
sbs(g8
Vfind
p74
tp75
g0
(g15
g2
Ntp76
Rp77
(dp78
g19
F0.5
sg20
I2
sg21
g22
((dp79
I00
I2
stp80
Rp81
sg26
I2
sg27
F3.0
sbs(g10
g58
tp82
g0
(g15
g2
Ntp83
Rp84
(dp85
g19
F0.5
sg20
I2
sg21
g22
((dp86
I00
I2
stp87
Rp88
sg26
I2
sg27
F3.0
sbs(g10
Vfrom
p89
tp90
g0
(g15
g2
Ntp91
Rp92
(dp93
g19
F0.5
sg20
I2
sg21
g22
((dp94
I00
I2
stp95
Rp96
sg26
I2
sg27
F3.0
sbs(g9
Vfor
p97
tp98
g0
(g15
g2
Ntp99
Rp100
(dp101
g19
F0.5
sg20
I2
sg21
g22
((dp102
I01
I2
stp103
Rp104
sg26
I2
sg27
F3.0
sbs(g10
Vday
p105
tp106
g0
(g15
g2
Ntp107
Rp108
(dp109
g19
F0.5
sg20
I2
sg21
g22
((dp110
I00
I2
stp111
Rp112
sg26
I2
sg27
F3.0
sbs(g10
Vhour
p113
tp114
g0
(g15
g2
Ntp115
Rp116
(dp117
g19
F0.5
sg20
I2
sg21
g22
((dp118
I00
I2
stp119
Rp120
sg26
I2
sg27
F3.0
sbs(g9
g74
tp121
g0
(g15
g2
Ntp122
Rp123
(dp124
g19
F0.5
sg20
I2
sg21
g22
((dp125
I01
I2
stp126
Rp127
sg26
I2
sg27
F3.0
sbs(g9
Vi
p128
tp129
g0
(g15
g2
Ntp130
Rp131
(dp132
g19
F0.5
sg20
I2
sg21
g22
((dp133
I00
I2
stp134
Rp135
sg26
I2
sg27
F3.0
sbs(g8
Vn't
p136
tp137
g0
(g15
g2
Ntp138
Rp139
(dp140
g19
F0.5
sg20
I2
sg21
g22
((dp141
I00
I1
sI01
I1
stp142
Rp143
sg26
I2
sg27
F3.0
sbs(g8
g28
tp144
g0
(g15
g2
Ntp145
Rp146
(dp147
g19
F0.5
sg20
I2
sg21
g22
((dp148
I00
I2
stp149
Rp150
sg26
I2
sg27
F3.0
sbs(g8
g97
tp151
g0
(g15
g2
Ntp152
Rp153
(dp154
g19
F0.5
sg20
I2
sg21
g22
((dp155
I00
I2
stp156
Rp157
sg26
I2
sg27
F3.0
sbs(g9
Vtravel
p158
tp159
g0
(g15
g2
Ntp160
Rp161
(dp162
g19
F0.5
sg20
I2
sg21
g22
((dp163
I00
I2
stp164
Rp165
sg26
I2
sg27
F3.0
sbs(g8
Vmaximum
p166
tp167
g0
(g15
g2
Ntp168
Rp169
(dp170
g19
F0.5
sg20
I2
sg21
g22
((dp171
I00
I1
sI01
I1
stp172
Rp173
sg26
I2
sg27
F3.0
sbs(g9
g166
tp174
g0
(g15
g2
Ntp175
Rp176
(dp177
g19
F0.5
sg20
I2
sg21
g22
((dp178
I00
I2
stp179
Rp180
sg26
I2
sg27
F3.0
sbs(g8
Vat
p181
tp182
g0
(g15
g2
Ntp183
Rp184
(dp185
g19
F0.5
sg20
I2
sg21
g22
((dp186
I00
I1
sI01
I1
stp187
Rp188
sg26
I2
sg27
F3.0
sbs(g8
g58
tp189
g0
(g15
g2
Ntp190
Rp191
(dp192
g19
F0.5
sg20
I2
sg21
g22
((dp193
I00
I1
sI01
I1
stp194
Rp195
sg26
I2
sg27
F3.0
sbs(g8
g128
tp196
g0
(g15
g2
Ntp197
Rp198
(dp199
g19
F0.5
sg20
I2
sg21
g22
((dp200
I00
I1
sI01
I1
stp201
Rp202
sg26
I2
sg27
F3.0
sbs(g9
g136
tp203
g0
(g15
g2
Ntp204
Rp205
(dp206
g19
F0.5
sg20
I2
sg21
g22
((dp207
I00
I2
stp208
Rp209
sg26
I2
sg27
F3.0
sbs(g10
Vspend
p210
tp211
g0
(g15
g2
Ntp212
Rp213
(dp214
g19
F0.5
sg20
I2
sg21
g22
((dp215
I00
I1
sI01
I1
stp216
Rp217
sg26
I2
sg27
F3.0
sbs(g9
g210
tp218
g0
(g15
g2
Ntp219
Rp220
(dp221
g19
F0.5
sg20
I2
sg21
g22
((dp222
I00
I2
stp223
Rp224
sg26
I2
sg27
F3.0
sbs(g8
Vto
p225
tp226
g0
(g15
g2
Ntp227
Rp228
(dp229
g19
F0.5
sg20
I2
sg21
g22
((dp230
I00
I1
sI01
I1
stp231
Rp232
sg26
I2
sg27
F3.0
sbs(g10
Vmore
p233
tp234
g0
(g15
g2
Ntp235
Rp236
(dp237
g19
F0.5
sg20
I2
sg21
g22
((dp238
I00
I1
sI01
I1
stp239
Rp240
sg26
I2
sg27
F3.0
sbs(g9
Vplace
p241
tp242
g0
(g15
g2
Ntp243
Rp244
(dp245
g19
F0.5
sg20
I2
sg21
g22
((dp246
I01
I2
stp247
Rp248
sg26
I2
sg27
F3.0
sbs(g9
g233
tp249
g0
(g15
g2
Ntp250
Rp251
(dp252
g19
F0.5
sg20
I2
sg21
g22
((dp253
I00
I2
stp254
Rp255
sg26
I2
sg27
F3.0
sbs(g9
Vis
p256
tp257
g0
(g15
g2
Ntp258
Rp259
(dp260
g19
F0.5
sg20
I2
sg21
g22
((dp261
I00
I2
stp262
Rp263
sg26
I2
sg27
F3.0
sbs(g9
g89
tp264
g0
(g15
g2
Ntp265
Rp266
(dp267
g19
F0.5
sg20
I2
sg21
g22
((dp268
I00
I2
stp269
Rp270
sg26
I2
sg27
F3.0
sbs(g10
g13
tp271
g0
(g15
g2
Ntp272
Rp273
(dp274
g19
F0.5
sg20
I2
sg21
g22
((dp275
I00
I1
sI01
I1
stp276
Rp277
sg26
I2
sg27
F3.0
sbs(g10
g256
tp278
g0
(g15
g2
Ntp279
Rp280
(dp281
g19
F0.5
sg20
I2
sg21
g22
((dp282
I00
I1
sI01
I1
stp283
Rp284
sg26
I2
sg27
F3.0
sbs(g10
g66
tp285
g0
(g15
g2
Ntp286
Rp287
(dp288
g19
F0.5
sg20
I2
sg21
g22
((dp289
I00
I2
stp290
Rp291
sg26
I2
sg27
F3.0
sbs(g9
g50
tp292
g0
(g15
g2
Ntp293
Rp294
(dp295
g19
F0.5
sg20
I2
sg21
g22
((dp296
I01
I2
stp297
Rp298
sg26
I1
sg27
F2.5
sbs(g8
Vnight
p299
tp300
g0
(g15
g2
Ntp301
Rp302
(dp303
g19
F0.5
sg20
I2
sg21
g22
((dp304
I00
I2
stp305
Rp306
sg26
I2
sg27
F3.0
sbs(g8
g105
tp307
g0
(g15
g2
Ntp308
Rp309
(dp310
g19
F0.5
sg20
I2
sg21
g22
((dp311
I00
I2
stp312
Rp313
sg26
I2
sg27
F3.0
sbs(g8
Vwant
p314
tp315
g0
(g15
g2
Ntp316
Rp317
(dp318
g19
F0.5
sg20
I2
sg21
g22
((dp319
I00
I1
sI01
I1
stp320
Rp321
sg26
I2
sg27
F3.0
sbs(g8
Vmy
p322
tp323
g0
(g15
g2
Ntp324
Rp325
(dp326
g19
F0.5
sg20
I2
sg21
g22
((dp327
I00
I2
stp328
Rp329
sg26
I2
sg27
F3.0
sbs(g10
g225
tp330
g0
(g15
g2
Ntp331
Rp332
(dp333
g19
F0.5
sg20
I2
sg21
g22
((dp334
I00
I1
sI01
I1
stp335
Rp336
sg26
I2
sg27
F3.0
sbs(g8
g50
tp337
g0
(g15
g2
Ntp338
Rp339
(dp340
g19
F0.5
sg20
I2
sg21
g22
((dp341
I01
I2
stp342
Rp343
sg26
I1
sg27
F2.5
sbs(g9
g113
tp344
g0
(g15
g2
Ntp345
Rp346
(dp347
g19
F0.5
sg20
I2
sg21
g22
((dp348
I00
I2
stp349
Rp350
sg26
I2
sg27
F3.0
sbs(g9
g225
tp351
g0
(g15
g2
Ntp352
Rp353
(dp354
g19
F0.5
sg20
I2
sg21
g22
((dp355
I00
I2
stp356
Rp357
sg26
I2
sg27
F3.0
sbs(g9
g322
tp358
g0
(g15
g2
Ntp359
Rp360
(dp361
g19
F0.5
sg20
I2
sg21
g22
((dp362
I00
I2
stp363
Rp364
sg26
I2
sg27
F3.0
sbs(g9
g299
tp365
g0
(g15
g2
Ntp366
Rp367
(dp368
g19
F0.5
sg20
I2
sg21
g22
((dp369
I00
I1
sI01
I1
stp370
Rp371
sg26
I2
sg27
F3.0
sbs(g9
Vthan
p372
tp373
g0
(g15
g2
Ntp374
Rp375
(dp376
g19
F0.5
sg20
I2
sg21
g22
((dp377
I00
I2
stp378
Rp379
sg26
I2
sg27
F3.0
sbs(g8
g89
tp380
g0
(g15
g2
Ntp381
Rp382
(dp383
g19
F0.5
sg20
I2
sg21
g22
((dp384
I00
I1
sI01
I1
stp385
Rp386
sg26
I2
sg27
F3.0
sbs(g8
g256
tp387
g0
(g15
g2
Ntp388
Rp389
(dp390
g19
F0.5
sg20
I2
sg21
g22
((dp391
I00
I2
stp392
Rp393
sg26
I2
sg27
F3.0
sbs(g10
g128
tp394
g0
(g15
g2
Ntp395
Rp396
(dp397
g19
F0.5
sg20
I2
sg21
g22
((dp398
I00
I1
sI01
I1
stp399
Rp400
sg26
I2
sg27
F3.0
sbs(g8
g113
tp401
g0
(g15
g2
Ntp402
Rp403
(dp404
g19
F0.5
sg20
I2
sg21
g22
((dp405
I01
I2
stp406
Rp407
sg26
I2
sg27
F3.0
sbs(g10
g181
tp408
g0
(g15
g2
Ntp409
Rp410
(dp411
g19
F0.5
sg20
I2
sg21
g22
((dp412
I00
I2
stp413
Rp414
sg26
I2
sg27
F3.0
sbs(g10
g158
tp415
g0
(g15
g2
Ntp416
Rp417
(dp418
g19
F0.5
sg20
I2
sg21
g22
((dp419
I00
I2
stp420
Rp421
sg26
I2
sg27
F3.0
sbs(g10
g299
tp422
g0
(g15
g2
Ntp423
Rp424
(dp425
g19
F0.5
sg20
I2
sg21
g22
((dp426
I00
I2
stp427
Rp428
sg26
I2
sg27
F3.0
sbs(g10
g166
tp429
g0
(g15
g2
Ntp430
Rp431
(dp432
g19
F0.5
sg20
I2
sg21
g22
((dp433
I00
I2
stp434
Rp435
sg26
I2
sg27
F3.0
sbs(g10
g314
tp436
g0
(g15
g2
Ntp437
Rp438
(dp439
g19
F0.5
sg20
I2
sg21
g22
((dp440
I00
I1
sI01
I1
stp441
Rp442
sg26
I2
sg27
F3.0
sbs(g8
g241
tp443
g0
(g15
g2
Ntp444
Rp445
(dp446
g19
F0.5
sg20
I2
sg21
g22
((dp447
I00
I2
stp448
Rp449
sg26
I2
sg27
F3.0
sbs(g8
g210
tp450
g0
(g15
g2
Ntp451
Rp452
(dp453
g19
F0.5
sg20
I2
sg21
g22
((dp454
I00
I2
stp455
Rp456
sg26
I2
sg27
F3.0
sbs(g10
g74
tp457
g0
(g15
g2
Ntp458
Rp459
(dp460
g19
F0.5
sg20
I2
sg21
g22
((dp461
I00
I2
stp462
Rp463
sg26
I2
sg27
F3.0
sbs(g9
g105
tp464
g0
(g15
g2
Ntp465
Rp466
(dp467
g19
F0.5
sg20
I2
sg21
g22
((dp468
I00
I1
sI01
I1
stp469
Rp470
sg26
I2
sg27
F3.0
sbs(g9
g181
tp471
g0
(g15
g2
Ntp472
Rp473
(dp474
g19
F0.5
sg20
I2
sg21
g22
((dp475
I00
I2
stp476
Rp477
sg26
I2
sg27
F3.0
sbs(g8
g233
tp478
g0
(g15
g2
Ntp479
Rp480
(dp481
g19
F0.5
sg20
I2
sg21
g22
((dp482
I00
I1
sI01
I1
stp483
Rp484
sg26
I2
sg27
F3.0
sbs(g10
g136
tp485
g0
(g15
g2
Ntp486
Rp487
(dp488
g19
F0.5
sg20
I2
sg21
g22
((dp489
I00
I1
sI01
I1
stp490
Rp491
sg26
I2
sg27
F3.0
sbs(g9
g314
tp492
g0
(g15
g2
Ntp493
Rp494
(dp495
g19
F0.5
sg20
I2
sg21
g22
((dp496
I00
I2
stp497
Rp498
sg26
I2
sg27
F3.0
sbs(g10
g97
tp499
g0
(g15
g2
Ntp500
Rp501
(dp502
g19
F0.5
sg20
I2
sg21
g22
((dp503
I00
I2
stp504
Rp505
sg26
I2
sg27
F3.0
sbs(g8
g372
tp506
g0
(g15
g2
Ntp507
Rp508
(dp509
g19
F0.5
sg20
I2
sg21
g22
((dp510
I00
I1
sI01
I1
stp511
Rp512
sg26
I2
sg27
F3.0
sbs(g10
g372
tp513
g0
(g15
g2
Ntp514
Rp515
(dp516
g19
F0.5
sg20
I2
sg21
g22
((dp517
I00
I1
sI01
I1
stp518
Rp519
sg26
I2
sg27
F3.0
sbs(g8
g158
tp520
g0
(g15
g2
Ntp521
Rp522
(dp523
g19
F0.5
sg20
I2
sg21
g22
((dp524
I00
I1
sI01
I1
stp525
Rp526
sg26
I2
sg27
F3.0
sbs(g10
g241
tp527
g0
(g15
g2
Ntp528
Rp529
(dp530
g19
F0.5
sg20
I2
sg21
g22
((dp531
I00
I2
stp532
Rp533
sg26
I2
sg27
F3.0
sbs(g9
g66
tp534
g0
(g15
g2
Ntp535
Rp536
(dp537
g19
F0.5
sg20
I2
sg21
g22
((dp538
I01
I2
stp539
Rp540
sg26
I2
sg27
F3.0
sbs(g10
g322
tp541
g0
(g15
g2
Ntp542
Rp543
(dp544
g19
F0.5
sg20
I2
sg21
g22
((dp545
I00
I1
sI01
I1
stp546
Rp547
sg26
I2
sg27
F3.0
sbssS'_label_probdist'
p548
g0
(g15
g2
Ntp549
Rp550
(dp551
g19
F0.5
sg20
I6
sg21
g22
((dp552
g8
I2
sg9
I2
sg10
I2
stp553
Rp554
sg26
I3
sg27
F7.5
sbsb.